target datalayout = "e-m:e-p270:32:32-p271:32:32-p272:64:64-i64:64-i128:128-f80:128-n8:16:32:64-S128"
target triple = "x86_64-pc-linux-gnu"

%struct.ExprEvalStep = type { i64, ptr, ptr, %union.anon }
%union.anon = type { %struct.anon.23 }
%struct.anon.23 = type { ptr, ptr, i32, i32, ptr, ptr }
%struct.ItemPointerData = type { %struct.BlockIdData, i16 }
%struct.BlockIdData = type { i16, i16 }
%struct.TupleDescData = type { i32, i32, i32, i32, ptr, [0 x %struct.CompactAttribute] }
%struct.CompactAttribute = type { i32, i16, i8, i8, i8, i8, i8, i8, i8 }
%struct.HeapTupleData = type { i32, %struct.ItemPointerData, i32, ptr }
%struct.anon.10 = type { %struct.ExprEvalRowtypeCache }
%struct.ExprEvalRowtypeCache = type { ptr, i64 }
%struct.anon.49 = type { i32, [0 x i8] }
%struct.HeapTupleHeaderData = type { %union.anon.52, %struct.ItemPointerData, i16, i16, i8, [0 x i8] }
%union.anon.52 = type { %struct.HeapTupleFields }
%struct.HeapTupleFields = type { i32, i32, %union.anon.53 }
%union.anon.53 = type { i32 }
%struct.DatumTupleFields = type { i32, i32, i32 }

; Function Attrs: inlinehint nounwind uwtable
define internal ptr @TupleDescCompactAttr(ptr noundef %0, i32 noundef %1) #2 {
  %3 = alloca ptr, align 8
  %4 = alloca i32, align 4
  %5 = alloca ptr, align 8
  store ptr %0, ptr %3, align 8
  store i32 %1, ptr %4, align 4
  call void @llvm.lifetime.start.p0(i64 8, ptr %5) #11
  %6 = load ptr, ptr %3, align 8
  %7 = getelementptr inbounds nuw %struct.TupleDescData, ptr %6, i32 0, i32 5
  %8 = load i32, ptr %4, align 4
  %9 = sext i32 %8 to i64
  %10 = getelementptr inbounds [0 x %struct.CompactAttribute], ptr %7, i64 0, i64 %9
  store ptr %10, ptr %5, align 8
  %11 = load ptr, ptr %5, align 8
  call void @llvm.lifetime.end.p0(i64 8, ptr %5) #11
  ret ptr %11
}

; Function Attrs: inlinehint nounwind uwtable
define internal i32 @HeapTupleHeaderGetDatumLength(ptr noundef %0) #2 {
  %2 = alloca ptr, align 8
  store ptr %0, ptr %2, align 8
  %3 = load ptr, ptr %2, align 8
  %4 = getelementptr inbounds nuw %struct.anon.49, ptr %3, i32 0, i32 0
  %5 = load i32, ptr %4, align 4
  %6 = lshr i32 %5, 2
  %7 = and i32 %6, 1073741823
  ret i32 %7
}

; Function Attrs: inlinehint nounwind uwtable
define internal i32 @HeapTupleHeaderGetTypMod(ptr noundef %0) #2 {
  %2 = alloca ptr, align 8
  store ptr %0, ptr %2, align 8
  %3 = load ptr, ptr %2, align 8
  %4 = getelementptr inbounds nuw %struct.HeapTupleHeaderData, ptr %3, i32 0, i32 0
  %5 = getelementptr inbounds nuw %struct.DatumTupleFields, ptr %4, i32 0, i32 1
  %6 = load i32, ptr %5, align 4
  ret i32 %6
}

; Function Attrs: inlinehint nounwind uwtable
define internal i32 @HeapTupleHeaderGetTypeId(ptr noundef %0) #2 {
  %2 = alloca ptr, align 8
  store ptr %0, ptr %2, align 8
  %3 = load ptr, ptr %2, align 8
  %4 = getelementptr inbounds nuw %struct.HeapTupleHeaderData, ptr %3, i32 0, i32 0
  %5 = getelementptr inbounds nuw %struct.DatumTupleFields, ptr %4, i32 0, i32 2
  %6 = load i32, ptr %5, align 4
  ret i32 %6
}

; Function Attrs: inlinehint nounwind uwtable
define internal ptr @DatumGetPointer(i64 noundef %0) #2 {
  %2 = alloca i64, align 8
  store i64 %0, ptr %2, align 8
  %3 = load i64, ptr %2, align 8
  %4 = inttoptr i64 %3 to ptr
  ret ptr %4
}

; Function Attrs: inlinehint nounwind uwtable
define internal i64 @BoolGetDatum(i1 noundef zeroext %0) #2 {
  %2 = alloca i8, align 1
  %3 = zext i1 %0 to i8
  store i8 %3, ptr %2, align 1
  %4 = load i8, ptr %2, align 1, !range !7, !noundef !8
  %5 = trunc i8 %4 to i1
  %6 = select i1 %5, i32 1, i32 0
  %7 = sext i32 %6 to i64
  ret i64 %7
}

; Function Attrs: nounwind uwtable
define internal void @ExecEvalRowNullInt(ptr noundef %0, ptr noundef %1, ptr noundef %2, i1 noundef zeroext %3) #0 {
  %5 = alloca ptr, align 8
  %6 = alloca ptr, align 8
  %7 = alloca ptr, align 8
  %8 = alloca i8, align 1
  %9 = alloca i64, align 8
  %10 = alloca i8, align 1
  %11 = alloca ptr, align 8
  %12 = alloca i32, align 4
  %13 = alloca i32, align 4
  %14 = alloca ptr, align 8
  %15 = alloca %struct.HeapTupleData, align 8
  %16 = alloca i32, align 4
  %17 = alloca i32, align 4
  store ptr %0, ptr %5, align 8
  store ptr %1, ptr %6, align 8
  store ptr %2, ptr %7, align 8
  %18 = zext i1 %3 to i8
  store i8 %18, ptr %8, align 1
  call void @llvm.lifetime.start.p0(i64 8, ptr %9) #11
  %19 = load ptr, ptr %6, align 8
  %20 = getelementptr inbounds nuw %struct.ExprEvalStep, ptr %19, i32 0, i32 1
  %21 = load ptr, ptr %20, align 8
  %22 = load i64, ptr %21, align 8
  store i64 %22, ptr %9, align 8
  call void @llvm.lifetime.start.p0(i64 1, ptr %10) #11
  %23 = load ptr, ptr %6, align 8
  %24 = getelementptr inbounds nuw %struct.ExprEvalStep, ptr %23, i32 0, i32 2
  %25 = load ptr, ptr %24, align 8
  %26 = load i8, ptr %25, align 1, !range !7, !noundef !8
  %27 = trunc i8 %26 to i1
  %28 = zext i1 %27 to i8
  store i8 %28, ptr %10, align 1
  call void @llvm.lifetime.start.p0(i64 8, ptr %11) #11
  call void @llvm.lifetime.start.p0(i64 4, ptr %12) #11
  call void @llvm.lifetime.start.p0(i64 4, ptr %13) #11
  call void @llvm.lifetime.start.p0(i64 8, ptr %14) #11
  call void @llvm.lifetime.start.p0(i64 24, ptr %15) #11
  %29 = load ptr, ptr %6, align 8
  %30 = getelementptr inbounds nuw %struct.ExprEvalStep, ptr %29, i32 0, i32 2
  %31 = load ptr, ptr %30, align 8
  store i8 0, ptr %31, align 1
  %32 = load i8, ptr %10, align 1, !range !7, !noundef !8
  %33 = trunc i8 %32 to i1
  br i1 %33, label %34, label %41

34:                                               ; preds = %4
  %35 = load i8, ptr %8, align 1, !range !7, !noundef !8
  %36 = trunc i8 %35 to i1
  %37 = call i64 @BoolGetDatum(i1 noundef zeroext %36)
  %38 = load ptr, ptr %6, align 8
  %39 = getelementptr inbounds nuw %struct.ExprEvalStep, ptr %38, i32 0, i32 1
  %40 = load ptr, ptr %39, align 8
  store i64 %37, ptr %40, align 8
  store i32 1, ptr %16, align 4
  br label %109

41:                                               ; preds = %4
  %42 = load i64, ptr %9, align 8
  %43 = call ptr @DatumGetPointer(i64 noundef %42)
  %44 = call ptr @pg_detoast_datum(ptr noundef %43)
  store ptr %44, ptr %11, align 8
  %45 = load ptr, ptr %11, align 8
  %46 = call i32 @HeapTupleHeaderGetTypeId(ptr noundef %45)
  store i32 %46, ptr %12, align 4
  %47 = load ptr, ptr %11, align 8
  %48 = call i32 @HeapTupleHeaderGetTypMod(ptr noundef %47)
  store i32 %48, ptr %13, align 4
  %49 = load i32, ptr %12, align 4
  %50 = load i32, ptr %13, align 4
  %51 = load ptr, ptr %6, align 8
  %52 = getelementptr inbounds nuw %struct.ExprEvalStep, ptr %51, i32 0, i32 3
  %53 = getelementptr inbounds nuw %struct.anon.10, ptr %52, i32 0, i32 0
  %54 = call ptr @get_cached_rowtype(i32 noundef %49, i32 noundef %50, ptr noundef %53, ptr noundef null)
  store ptr %54, ptr %14, align 8
  %55 = load ptr, ptr %11, align 8
  %56 = call i32 @HeapTupleHeaderGetDatumLength(ptr noundef %55)
  %57 = getelementptr inbounds nuw %struct.HeapTupleData, ptr %15, i32 0, i32 0
  store i32 %56, ptr %57, align 8
  %58 = load ptr, ptr %11, align 8
  %59 = getelementptr inbounds nuw %struct.HeapTupleData, ptr %15, i32 0, i32 3
  store ptr %58, ptr %59, align 8
  call void @llvm.lifetime.start.p0(i64 4, ptr %17) #11
  store i32 1, ptr %17, align 4
  br label %60

60:                                               ; preds = %99, %41
  %61 = load i32, ptr %17, align 4
  %62 = load ptr, ptr %14, align 8
  %63 = getelementptr inbounds nuw %struct.TupleDescData, ptr %62, i32 0, i32 0
  %64 = load i32, ptr %63, align 8
  %65 = icmp sle i32 %61, %64
  br i1 %65, label %67, label %66

66:                                               ; preds = %60
  store i32 2, ptr %16, align 4
  br label %102

67:                                               ; preds = %60
  %68 = load ptr, ptr %14, align 8
  %69 = load i32, ptr %17, align 4
  %70 = sub i32 %69, 1
  %71 = call ptr @TupleDescCompactAttr(ptr noundef %68, i32 noundef %70)
  %72 = getelementptr inbounds nuw %struct.CompactAttribute, ptr %71, i32 0, i32 5
  %73 = load i8, ptr %72, align 1, !range !7, !noundef !8
  %74 = trunc i8 %73 to i1
  br i1 %74, label %75, label %76

75:                                               ; preds = %67
  br label %99

76:                                               ; preds = %67
  %77 = load i32, ptr %17, align 4
  %78 = load ptr, ptr %14, align 8
  %79 = call zeroext i1 @heap_attisnull(ptr noundef %15, i32 noundef %77, ptr noundef %78)
  br i1 %79, label %80, label %89

80:                                               ; preds = %76
  %81 = load i8, ptr %8, align 1, !range !7, !noundef !8
  %82 = trunc i8 %81 to i1
  br i1 %82, label %88, label %83

83:                                               ; preds = %80
  %84 = call i64 @BoolGetDatum(i1 noundef zeroext false)
  %85 = load ptr, ptr %6, align 8
  %86 = getelementptr inbounds nuw %struct.ExprEvalStep, ptr %85, i32 0, i32 1
  %87 = load ptr, ptr %86, align 8
  store i64 %84, ptr %87, align 8
  store i32 1, ptr %16, align 4
  br label %102

88:                                               ; preds = %80
  br label %98

89:                                               ; preds = %76
  %90 = load i8, ptr %8, align 1, !range !7, !noundef !8
  %91 = trunc i8 %90 to i1
  br i1 %91, label %92, label %97

92:                                               ; preds = %89
  %93 = call i64 @BoolGetDatum(i1 noundef zeroext false)
  %94 = load ptr, ptr %6, align 8
  %95 = getelementptr inbounds nuw %struct.ExprEvalStep, ptr %94, i32 0, i32 1
  %96 = load ptr, ptr %95, align 8
  store i64 %93, ptr %96, align 8
  store i32 1, ptr %16, align 4
  br label %102

97:                                               ; preds = %89
  br label %98

98:                                               ; preds = %97, %88
  br label %99

99:                                               ; preds = %98, %75
  %100 = load i32, ptr %17, align 4
  %101 = add i32 %100, 1
  store i32 %101, ptr %17, align 4
  br label %60, !llvm.loop !16

102:                                              ; preds = %92, %83, %66
  call void @llvm.lifetime.end.p0(i64 4, ptr %17) #11
  %103 = load i32, ptr %16, align 4
  switch i32 %103, label %109 [
    i32 2, label %104
  ]

104:                                              ; preds = %102
  %105 = call i64 @BoolGetDatum(i1 noundef zeroext true)
  %106 = load ptr, ptr %6, align 8
  %107 = getelementptr inbounds nuw %struct.ExprEvalStep, ptr %106, i32 0, i32 1
  %108 = load ptr, ptr %107, align 8
  store i64 %105, ptr %108, align 8
  store i32 0, ptr %16, align 4
  br label %109

109:                                              ; preds = %104, %102, %34
  call void @llvm.lifetime.end.p0(i64 24, ptr %15) #11
  call void @llvm.lifetime.end.p0(i64 8, ptr %14) #11
  call void @llvm.lifetime.end.p0(i64 4, ptr %13) #11
  call void @llvm.lifetime.end.p0(i64 4, ptr %12) #11
  call void @llvm.lifetime.end.p0(i64 8, ptr %11) #11
  call void @llvm.lifetime.end.p0(i64 1, ptr %10) #11
  call void @llvm.lifetime.end.p0(i64 8, ptr %9) #11
  %110 = load i32, ptr %16, align 4
  switch i32 %110, label %112 [
    i32 0, label %111
    i32 1, label %111
  ]

111:                                              ; preds = %109, %109
  ret void

112:                                              ; preds = %109
  unreachable
}

; Function Attrs: nounwind uwtable
define dso_local void @ExecEvalRowNull(ptr noundef %0, ptr noundef %1, ptr noundef %2) #0 {
  %4 = alloca ptr, align 8
  %5 = alloca ptr, align 8
  %6 = alloca ptr, align 8
  store ptr %0, ptr %4, align 8
  store ptr %1, ptr %5, align 8
  store ptr %2, ptr %6, align 8
  %7 = load ptr, ptr %4, align 8
  %8 = load ptr, ptr %5, align 8
  %9 = load ptr, ptr %6, align 8
  call void @ExecEvalRowNullInt(ptr noundef %7, ptr noundef %8, ptr noundef %9, i1 noundef zeroext true)
  ret void
}